(dp0
S'934'
p1
(dp2
S'com_lnSa'
p3
F1.34
sS'edge_ids_direct'
p4
(lp5
I19370
aI19260
asS'jessica_id'
p6
I3552
sS'new_id'
p7
I874
sS'mod_lnSa'
p8
F0.82
sS'edge_ids_indirect'
p9
(lp10
I19257
aI19261
aI19258
aI19376
aI19377
aI19394
asS'loren_row_number'
p11
I3553
sS'original_id'
p12
I934
sS'ext_lnSa'
p13
F1.13
sS'a_b_pairs_indirect'
p14
(lp15
(I6825
I6826
tp16
a(I6827
I6865
tp17
a(I6825
I6866
tp18
a(I6866
I6865
tp19
a(I6866
I6872
tp20
a(I6872
I6866
tp21
asS'a_b_pairs_direct'
p22
(lp23
(I6864
I6826
tp24
a(I6827
I6864
tp25
assS'1165'
p26
(dp27
g3
F0.98
sg4
(lp28
I20605
aI20607
asg6
I3494
sg7
I1082
sg8
F0.65
sg9
(lp29
I19517
aI20602
asg11
I3495
sg12
I1165
sg13
F0.75
sg14
(lp30
(I6908
I7264
tp31
a(I7264
I6908
tp32
asg22
(lp33
(I7264
I7265
tp34
a(I7265
I7264
tp35
assS'989'
p36
(dp37
g3
F1.16
sg4
(lp38
sg6
I3569
sg7
I925
sg8
F0.7
sg9
(lp39
I19623
aI19629
asg11
I3570
sg12
I989
sg13
F0.98
sg14
(lp40
(I6942
I6945
tp41
a(I6946
I6943
tp42
asg22
(lp43
ssS'1081'
p44
(dp45
g3
F0.82
sg4
(lp46
I19264
aI19544
asg6
I3498
sg7
I1004
sg8
F0.46
sg9
(lp47
I19259
aI19361
asg11
I3499
sg12
I1081
sg13
F0.55
sg14
(lp48
(I6826
I6860
tp49
a(I6859
I6827
tp50
asg22
(lp51
(I6828
I6918
tp52
a(I6918
I6828
tp53
assS'884'
p54
(dp55
g3
F1.39
sg4
(lp56
I18973
aI18975
asg6
I3534
sg7
I829
sg8
F0.78
sg9
(lp57
I31912
asg11
I3535
sg12
I884
sg13
F0.96
sg14
(lp58
(I13502
I6738
tp59
asg22
(lp60
(I6733
I6736
tp61
a(I6734
I6732
tp62
assS'1065'
p63
(dp64
g3
F0.96
sg4
(lp65
I20818
aI20879
asg6
I3503
sg7
I992
sg8
F0.63
sg9
(lp66
sg11
I3504
sg12
I1065
sg13
F0.73
sg14
(lp67
sg22
(lp68
(I7328
I7348
tp69
a(I7348
I7329
tp70
assS'1071'
p71
(dp72
g3
F1.07
sg4
(lp73
sg6
I3505
sg7
I996
sg8
F0.6
sg9
(lp74
sg11
I3506
sg12
I1071
sg13
F0.73
sg14
(lp75
sg22
(lp76
ssS'985'
p77
(dp78
g3
F0.71
sg4
(lp79
I20816
aI20820
asg6
I3520
sg7
I922
sg8
F0.47
sg9
(lp80
I20058
aI20085
asg11
I3521
sg12
I985
sg13
F0.54
sg14
(lp81
(I7108
I7117
tp82
a(I7117
I7108
tp83
asg22
(lp84
(I7326
I7328
tp85
a(I7329
I7327
tp86
assS'1032'
p87
(dp88
g3
F0.68
sg4
(lp89
sg6
I3497
sg7
I964
sg8
F0.43
sg9
(lp90
I6719
aI6842
asg11
I3498
sg12
I1032
sg13
F0.51
sg14
(lp91
(I2895
I2932
tp92
a(I2933
I2894
tp93
asg22
(lp94
ssS'1075'
p95
(dp96
g3
F0.98
sg4
(lp97
sg6
I3500
sg7
I999
sg8
F0.65
sg9
(lp98
sg11
I3501
sg12
I1075
sg13
F0.75
sg14
(lp99
sg22
(lp100
ssS'1067'
p101
(dp102
g3
F0.81
sg4
(lp103
I19450
aI19455
asg6
I3506
sg7
I994
sg8
F0.54
sg9
(lp104
I19451
aI19505
asg11
I3507
sg12
I1067
sg13
F0.62
sg14
(lp105
(I6891
I6905
tp106
a(I6905
I6891
tp107
asg22
(lp108
(I6891
I6892
tp109
a(I6892
I6891
tp110
assS'978'
p111
(dp112
g3
F1.15
sg4
(lp113
I20016
aI20019
aI20021
aI21935
aI19076
aI20017
asg6
I3576
sg7
I915
sg8
F0.7
sg9
(lp114
I20018
aI20020
asg11
I3577
sg12
I978
sg13
F0.97
sg14
(lp115
(I7097
I6924
tp116
a(I7097
I7102
tp117
asg22
(lp118
(I7096
I7097
tp119
a(I7097
I7096
tp120
a(I7097
I7680
tp121
a(I7680
I7097
tp122
a(I6763
I7097
tp123
a(I7097
I6763
tp124
assS'990'
p125
(dp126
g3
F1.07
sg4
(lp127
I19625
aI19667
aI19623
aI19629
asg6
I3570
sg7
I926
sg8
F0.71
sg9
(lp128
I20996
aI27065
asg11
I3571
sg12
I990
sg13
F0.82
sg14
(lp129
(I7382
I7383
tp130
a(I10241
I6951
tp131
asg22
(lp132
(I6943
I6962
tp133
a(I6961
I6942
tp134
a(I6942
I6945
tp135
a(I6946
I6943
tp136
assS'977'
p137
(dp138
g3
F1.23
sg4
(lp139
I20008
aI20966
asg6
I3527
sg7
I914
sg8
F0.69
sg9
(lp140
I20902
aI20905
asg11
I3528
sg12
I977
sg13
F0.85
sg14
(lp141
(I7356
I7357
tp142
a(I7357
I7356
tp143
asg22
(lp144
(I7094
I7375
tp145
a(I7374
I7093
tp146
assS'976'
p147
(dp148
g3
F1.07
sg4
(lp149
I20902
aI20905
asg6
I3519
sg7
I913
sg8
F0.6
sg9
(lp150
I20008
aI20966
asg11
I3520
sg12
I976
sg13
F0.73
sg14
(lp151
(I7094
I7375
tp152
a(I7374
I7093
tp153
asg22
(lp154
(I7356
I7357
tp155
a(I7357
I7356
tp156
assS'975'
p157
(dp158
g3
F1.18
sg4
(lp159
I19563
aI20006
asg6
I3518
sg7
I912
sg8
F0.71
sg9
(lp160
I20013
aI20015
asg11
I3519
sg12
I975
sg13
F0.99
sg14
(lp161
(I7095
I7096
tp162
a(I7096
I7095
tp163
asg22
(lp164
(I6925
I7094
tp165
a(I7093
I6924
tp166
assS'972'
p167
(dp168
g3
F0.56
sg4
(lp169
I19676
aI19677
asg6
I3524
sg7
I909
sg8
F0.37
sg9
(lp170
sg11
I3525
sg12
I972
sg13
F0.43
sg14
(lp171
sg22
(lp172
(I6965
I6967
tp173
a(I6966
I6964
tp174
assS'971'
p175
(dp176
g3
F1.23
sg4
(lp177
sg6
I3525
sg7
I908
sg8
F0.69
sg9
(lp178
I20008
asg11
I3526
sg12
I971
sg13
F0.85
sg14
(lp179
(I7094
I7375
tp180
asg22
(lp181
ssS'879'
p182
(dp183
g3
F1.07
sg4
(lp184
I20681
aI20683
asg6
I3507
sg7
I824
sg8
F0.61
sg9
(lp185
I130
aI20682
asg11
I3508
sg12
I879
sg13
F0.82
sg14
(lp186
sg22
(lp187
(I7285
I7286
tp188
a(I7286
I7285
tp189
assS'951'
p190
(dp191
g3
F1.68
sg4
(lp192
I19305
aI19582
asg6
I3542
sg7
I888
sg8
F1.02
sg9
(lp193
I19259
aI19361
asg11
I3543
sg12
I951
sg13
F1.41
sg14
(lp194
(I6826
I6860
tp195
a(I6859
I6827
tp196
asg22
(lp197
(I6839
I6931
tp198
a(I6931
I6839
tp199
assS'950'
p200
(dp201
g3
F1.29
sg4
(lp202
I19560
asg6
I3540
sg7
I887
sg8
F0.78
sg9
(lp203
I19247
aI21980
asg11
I3541
sg12
I950
sg13
F1.09
sg14
(lp204
(I6820
I7693
tp205
a(I7693
I6820
tp206
asg22
(lp207
(I6923
I6815
tp208
assS'953'
p209
(dp210
g3
F0.67
sg4
(lp211
I20823
aI20826
asg6
I3499
sg7
I890
sg8
F0.38
sg9
(lp212
sg11
I3500
sg12
I953
sg13
F0.46
sg14
(lp213
sg22
(lp214
(I7331
I7333
tp215
a(I7333
I7330
tp216
assS'952'
p217
(dp218
g3
F1.4
sg4
(lp219
I19370
asg6
I3561
sg7
I889
sg8
F0.85
sg9
(lp220
I19257
aI19261
aI19258
aI19376
aI19377
aI19394
asg11
I3562
sg12
I952
sg13
F1.18
sg14
(lp221
(I6825
I6826
tp222
a(I6827
I6865
tp223
a(I6825
I6866
tp224
a(I6866
I6865
tp225
a(I6866
I6872
tp226
a(I6872
I6866
tp227
asg22
(lp228
(I6864
I6826
tp229
assS'955'
p230
(dp231
g3
F1.36
sg4
(lp232
I19362
aI19580
aI19584
aI19589
asg6
I3544
sg7
I892
sg8
F0.83
sg9
(lp233
sg11
I3545
sg12
I955
sg13
F1.15
sg14
(lp234
sg22
(lp235
(I6860
I6802
tp236
a(I6930
I6859
tp237
a(I6931
I6933
tp238
a(I6933
I6931
tp239
assS'954'
p240
(dp241
g3
F1.68
sg4
(lp242
sg6
I3543
sg7
I891
sg8
F1.02
sg9
(lp243
I19259
aI19361
asg11
I3544
sg12
I954
sg13
F1.41
sg14
(lp244
(I6826
I6860
tp245
a(I6859
I6827
tp246
asg22
(lp247
ssS'979'
p248
(dp249
g3
F1.18
sg4
(lp250
I19032
aI19797
aI19702
aI19696
aI19793
aI19801
aI19800
asg6
I3577
sg7
I916
sg8
F0.68
sg9
(lp251
I19796
aI21056
aI21075
aI19699
asg11
I3578
sg12
I979
sg13
F0.9
sg14
(lp252
(I7014
I7406
tp253
a(I7401
I6979
tp254
a(I7406
I7014
tp255
a(I6979
I6980
tp256
asg22
(lp257
(I6751
I7015
tp258
a(I7015
I6981
tp259
a(I6981
I6978
tp260
a(I6978
I6976
tp261
a(I7013
I6976
tp262
a(I7016
I7013
tp263
a(I7016
I6751
tp264
assS'956'
p265
(dp266
g3
F0.54
sg4
(lp267
I19958
aI19959
aI19856
aI19860
aI19961
asg6
I3545
sg7
I893
sg8
F0.3
sg9
(lp268
I236
aI237
aI19857
aI19862
aI19967
aI19970
aI19972
aI19973
aI19977
aI21923
asg11
I3546
sg12
I956
sg13
F0.36
sg14
(lp269
(I7044
I7084
tp270
a(I7045
I7085
tp271
a(I7083
I7677
tp272
a(I7084
I7044
tp273
a(I7085
I7045
tp274
a(I7677
I7083
tp275
asg22
(lp276
(I7076
I7078
tp277
a(I7077
I7075
tp278
a(I7044
I7045
tp279
a(I7045
I7044
tp280
a(I7078
I7079
tp281
assS'939'
p282
(dp283
g3
F0.59
sg4
(lp284
I19559
aI19216
asg6
I3516
sg7
I878
sg8
F0.29
sg9
(lp285
I19117
aI19245
aI19232
aI19244
aI19246
aI19116
asg11
I3517
sg12
I939
sg13
F0.4
sg14
(lp286
(I6775
I6820
tp287
a(I6820
I6775
tp288
a(I6814
I6820
tp289
a(I6820
I6764
tp290
a(I6820
I6814
tp291
a(I6775
I6788
tp292
asg22
(lp293
(I6923
I6764
tp294
a(I6809
I6922
tp295
assS'1030'
p296
(dp297
g3
F0.44
sg4
(lp298
sg6
I3583
sg7
I962
sg8
F0.32
sg9
(lp299
I21667
aI21710
asg11
I3584
sg12
I1030
sg13
F0.32
sg14
(lp300
(I7599
I7598
tp301
a(I7611
I7612
tp302
asg22
(lp303
ssS'919'
p304
(dp305
g3
F1.07
sg4
(lp306
sg6
I3574
sg7
I860
sg8
F0.6
sg9
(lp307
sg11
I3575
sg12
I919
sg13
F0.73
sg14
(lp308
sg22
(lp309
ssS'918'
p310
(dp311
g3
F1.07
sg4
(lp312
I19203
aI19213
asg6
I3531
sg7
I859
sg8
F0.6
sg9
(lp313
sg11
I3532
sg12
I918
sg13
F0.73
sg14
(lp314
sg22
(lp315
(I6803
I6806
tp316
a(I6807
I6804
tp317
assS'915'
p318
(dp319
g3
F1.15
sg4
(lp320
I19310
aI19417
asg6
I3567
sg7
I856
sg8
F0.7
sg9
(lp321
sg11
I3568
sg12
I915
sg13
F0.97
sg14
(lp322
sg22
(lp323
(I6842
I6844
tp324
a(I6881
I6878
tp325
assS'932'
p326
(dp327
g3
F1.39
sg4
(lp328
I19376
aI19260
asg6
I3550
sg7
I872
sg8
F0.78
sg9
(lp329
I19377
aI19394
asg11
I3551
sg12
I932
sg13
F0.96
sg14
(lp330
(I6866
I6872
tp331
a(I6872
I6866
tp332
asg22
(lp333
(I6866
I6865
tp334
a(I6827
I6864
tp335
assS'917'
p336
(dp337
g3
F0.68
sg4
(lp338
I32262
aI19326
asg6
I3566
sg7
I858
sg8
F0.39
sg9
(lp339
I19369
aI19316
asg11
I3567
sg12
I917
sg13
F0.46
sg14
(lp340
(I6863
I6881
tp341
a(I6844
I6824
tp342
asg22
(lp343
(I13618
I6847
tp344
a(I6847
I13618
tp345
assS'930'
p346
(dp347
g3
F1.21
sg4
(lp348
I19257
aI19261
aI19377
asg6
I3548
sg7
I870
sg8
F0.68
sg9
(lp349
I19394
asg11
I3549
sg12
I930
sg13
F0.83
sg14
(lp350
(I6872
I6866
tp351
asg22
(lp352
(I6825
I6826
tp353
a(I6827
I6865
tp354
a(I6866
I6872
tp355
assS'937'
p356
(dp357
g3
F0.71
sg4
(lp358
I19258
aI19376
asg6
I3563
sg7
I877
sg8
F0.41
sg9
(lp359
I19294
aI20258
asg11
I3564
sg12
I937
sg13
F0.48
sg14
(lp360
(I6837
I7163
tp361
a(I7163
I6837
tp362
asg22
(lp363
(I6825
I6866
tp364
a(I6866
I6865
tp365
assS'910'
p366
(dp367
g3
F0.8
sg4
(lp368
I19161
aI19229
asg6
I3515
sg7
I851
sg8
F0.49
sg9
(lp369
I18212
aI19215
asg11
I3516
sg12
I910
sg13
F0.68
sg14
(lp370
(I6808
I6807
tp371
asg22
(lp372
(I6788
I6814
tp373
a(I6814
I6788
tp374
assS'935'
p375
(dp376
g3
F1.21
sg4
(lp377
sg6
I3553
sg7
I875
sg8
F0.73
sg9
(lp378
I19375
aI19256
asg11
I3554
sg12
I935
sg13
F1.02
sg14
(lp379
(I6865
I6863
tp380
a(I6824
I6825
tp381
asg22
(lp382
ssS'912'
p383
(dp384
g3
F0.56
sg4
(lp385
I18968
aI18979
asg6
I3513
sg7
I853
sg8
F0.32
sg9
(lp386
I18980
asg11
I3514
sg12
I912
sg13
F0.38
sg14
(lp387
(I6736
I6791
tp388
asg22
(lp389
(I6731
I6734
tp390
a(I6736
I6730
tp391
assS'995'
p392
(dp393
g3
F1.39
sg4
(lp394
sg6
I3571
sg7
I931
sg8
F0.78
sg9
(lp395
I19558
aI19561
asg11
I3572
sg12
I995
sg13
F0.96
sg14
(lp396
(I6922
I6925
tp397
a(I6924
I6923
tp398
asg22
(lp399
ssS'994'
p400
(dp401
g3
F0.75
sg4
(lp402
I19257
aI19261
asg6
I3560
sg7
I930
sg8
F0.43
sg9
(lp403
I19266
aI19291
asg11
I3561
sg12
I994
sg13
F0.51
sg14
(lp404
(I6829
I6837
tp405
a(I6837
I6829
tp406
asg22
(lp407
(I6825
I6826
tp408
a(I6827
I6865
tp409
assS'892'
p410
(dp411
g3
F0.67
sg4
(lp412
I18968
aI18979
asg6
I3512
sg7
I834
sg8
F0.38
sg9
(lp413
I18980
asg11
I3513
sg12
I892
sg13
F0.46
sg14
(lp414
(I6736
I6791
tp415
asg22
(lp416
(I6731
I6734
tp417
a(I6736
I6730
tp418
assS'893'
p419
(dp420
g3
F0.6
sg4
(lp421
I19411
aI19419
aI19410
asg6
I3556
sg7
I835
sg8
F0.34
sg9
(lp422
sg11
I3557
sg12
I893
sg13
F0.4
sg14
(lp423
sg22
(lp424
(I6879
I6882
tp425
a(I6882
I6879
tp426
a(I6878
I6879
tp427
assS'894'
p428
(dp429
g3
F0.62
sg4
(lp430
I19315
aI19418
asg6
I3557
sg7
I836
sg8
F0.35
sg9
(lp431
I19312
asg11
I3558
sg12
I894
sg13
F0.42
sg14
(lp432
(I6843
I6842
tp433
asg22
(lp434
(I6843
I6882
tp435
a(I6882
I6843
tp436
assS'895'
p437
(dp438
g3
F1.17
sg4
(lp439
I32349
aI19327
asg6
I3558
sg7
I837
sg8
F0.71
sg9
(lp440
I19417
aI19310
asg11
I3559
sg12
I895
sg13
F0.98
sg14
(lp441
(I6881
I6878
tp442
a(I6842
I6844
tp443
asg22
(lp444
(I13648
I6847
tp445
a(I6847
I13648
tp446
assS'993'
p447
(dp448
g3
F1.23
sg4
(lp449
I19563
aI20006
asg6
I3526
sg7
I929
sg8
F0.69
sg9
(lp450
I20013
aI20015
asg11
I3527
sg12
I993
sg13
F0.85
sg14
(lp451
(I7095
I7096
tp452
a(I7096
I7095
tp453
asg22
(lp454
(I6925
I7094
tp455
a(I7093
I6924
tp456
assS'898'
p457
(dp458
g3
F1.4
sg4
(lp459
I19558
aI19561
asg6
I3522
sg7
I839
sg8
F0.92
sg9
(lp460
I19079
aI19565
asg11
I3523
sg12
I898
sg13
F1.06
sg14
(lp461
(I6765
I6926
tp462
a(I6926
I6765
tp463
asg22
(lp464
(I6922
I6925
tp465
a(I6924
I6923
tp466
assS'899'
p467
(dp468
g3
F1.15
sg4
(lp469
I19611
aI19622
asg6
I3568
sg7
I840
sg8
F0.7
sg9
(lp470
I19628
aI19633
asg11
I3569
sg12
I899
sg13
F0.97
sg14
(lp471
(I6945
I6947
tp472
a(I6948
I6946
tp473
asg22
(lp474
(I6939
I6941
tp475
a(I6941
I6939
tp476
assS'1066'
p477
(dp478
g3
F0.66
sg4
(lp479
I20813
aI20815
asg6
I3504
sg7
I993
sg8
F0.33
sg9
(lp480
I20819
aI20058
aI20085
asg11
I3505
sg12
I1066
sg13
F0.45
sg14
(lp481
(I7329
I7324
tp482
a(I7108
I7117
tp483
a(I7117
I7108
tp484
asg22
(lp485
(I7325
I7327
tp486
a(I7326
I7324
tp487
assS'1027'
p488
(dp489
g3
F1.19
sg4
(lp490
I19801
aI19793
aI19696
aI19702
aI19797
aI19032
asg6
I3578
sg7
I959
sg8
F0.68
sg9
(lp491
I19802
aI19808
aI21076
aI21153
asg11
I3579
sg12
I1027
sg13
F0.91
sg14
(lp492
(I7016
I7019
tp493
a(I7020
I7017
tp494
a(I7406
I7017
tp495
a(I7432
I7017
tp496
asg22
(lp497
(I7016
I7013
tp498
a(I7013
I6976
tp499
a(I6978
I6976
tp500
a(I6981
I6978
tp501
a(I7015
I6981
tp502
a(I6751
I7015
tp503
assS'933'
p504
(dp505
g3
F1.0
sg4
(lp506
I19257
aI19261
asg6
I3551
sg7
I873
sg8
F0.56
sg9
(lp507
I19258
aI19376
asg11
I3552
sg12
I933
sg13
F0.69
sg14
(lp508
(I6825
I6866
tp509
a(I6866
I6865
tp510
asg22
(lp511
(I6825
I6826
tp512
a(I6827
I6865
tp513
assS'1003'
p514
(dp515
g3
F1.08
sg4
(lp516
sg6
I3546
sg7
I939
sg8
F0.66
sg9
(lp517
I19258
aI19376
aI19260
aI19370
asg11
I3547
sg12
I1003
sg13
F0.91
sg14
(lp518
(I6825
I6866
tp519
a(I6866
I6865
tp520
a(I6827
I6864
tp521
a(I6864
I6826
tp522
asg22
(lp523
ssS'1070'
p524
(dp525
g3
F1.31
sg4
(lp526
I19446
aI19504
asg6
I3521
sg7
I995
sg8
F0.75
sg9
(lp527
I19448
aI19500
asg11
I3522
sg12
I1070
sg13
F0.99
sg14
(lp528
(I6890
I6904
tp529
a(I6904
I6890
tp530
asg22
(lp531
(I6889
I6905
tp532
a(I6905
I6889
tp533
assS'1033'
p534
(dp535
g3
F0.31
sg4
(lp536
I19802
aI19808
asg6
I3580
sg7
I965
sg8
F0.17
sg9
(lp537
I19888
aI21081
asg11
I3581
sg12
I1033
sg13
F0.21
sg14
(lp538
(I7052
I7053
tp539
a(I7407
I7408
tp540
asg22
(lp541
(I7016
I7019
tp542
a(I7020
I7017
tp543
assS'1886'
p544
(dp545
S'com_lnSa'
p546
F0.68
sS'edge_ids_direct'
p547
(lp548
I19803
aI19681
aI6968
aI6971
aI19694
aI21160
aI27688
aI19709
aI19800
aI19032
asS'mod_lnSa'
p549
F0.43
sS'a_b_pairs_direct'
p550
(lp551
(I7017
I6971
tp552
a(I6970
I7016
tp553
a(I2973
I4091
tp554
a(I2974
I2930
tp555
a(I6977
I7434
tp556
a(I7434
I6977
tp557
a(I10546
I6988
tp558
a(I6984
I10541
tp559
a(I7016
I6751
tp560
a(I6751
I7015
tp561
asS'new_id'
p562
I1743
sS'jessica_id'
p563
I3496
sS'original_id'
p564
I1886
sS'loren_row_number'
p565
I3497
sS'edge_ids_indirect'
p566
(lp567
sS'ext_lnSa'
p568
F0.51
sS'a_b_pairs_indirect'
p569
(lp570
ssS'931'
p571
(dp572
g3
F1.21
sg4
(lp573
I19257
aI19261
aI19377
asg6
I3549
sg7
I871
sg8
F0.68
sg9
(lp574
I19394
asg11
I3550
sg12
I931
sg13
F0.83
sg14
(lp575
(I6872
I6866
tp576
asg22
(lp577
(I6825
I6826
tp578
a(I6827
I6865
tp579
a(I6866
I6872
tp580
assS'965'
p581
(dp582
g3
F1.12
sg4
(lp583
I19676
aI19677
asg6
I3523
sg7
I902
sg8
F0.68
sg9
(lp584
I19675
asg11
I3524
sg12
I965
sg13
F0.94
sg14
(lp585
(I6965
I6773
tp586
asg22
(lp587
(I6965
I6967
tp588
a(I6966
I6964
tp589
assS'966'
p590
(dp591
g3
F0.97
sg4
(lp592
I18978
aI19162
asg6
I3572
sg7
I903
sg8
F0.48
sg9
(lp593
I18968
aI18979
asg11
I3573
sg12
I966
sg13
F0.66
sg14
(lp594
(I6731
I6734
tp595
a(I6736
I6730
tp596
asg22
(lp597
(I6735
I6789
tp598
a(I6789
I6735
tp599
assS'901'
p600
(dp601
g3
F0.93
sg4
(lp602
sg6
I3573
sg7
I842
sg8
F0.53
sg9
(lp603
sg11
I3574
sg12
I901
sg13
F0.71
sg14
(lp604
sg22
(lp605
ssS'948'
p606
(dp607
g3
F1.4
sg4
(lp608
I19077
aI19216
aI19235
aI19634
asg6
I3537
sg7
I886
sg8
F0.69
sg9
(lp609
sg11
I3538
sg12
I948
sg13
F0.96
sg14
(lp610
sg22
(lp611
(I6764
I6808
tp612
a(I6809
I6922
tp613
a(I6816
I6959
tp614
a(I6949
I6815
tp615
assS'904'
p616
(dp617
g3
F1.16
sg4
(lp618
I19963
aI19966
asg6
I3559
sg7
I845
sg8
F0.58
sg9
(lp619
I19979
aI19991
asg11
I3560
sg12
I904
sg13
F0.8
sg14
(lp620
(I7085
I7088
tp621
a(I7088
I7085
tp622
asg22
(lp623
(I7080
I7081
tp624
a(I7082
I7074
tp625
assS'947'
p626
(dp627
g3
F1.21
sg4
(lp628
I19563
aI20006
asg6
I3517
sg7
I885
sg8
F0.6
sg9
(lp629
I20013
aI20015
asg11
I3518
sg12
I947
sg13
F0.83
sg14
(lp630
(I7095
I7096
tp631
a(I7096
I7095
tp632
asg22
(lp633
(I6925
I7094
tp634
a(I7093
I6924
tp635
assS'944'
p636
(dp637
g3
F1.12
sg4
(lp638
I19375
aI19256
asg6
I3564
sg7
I883
sg8
F0.68
sg9
(lp639
sg11
I3565
sg12
I944
sg13
F0.94
sg14
(lp640
sg22
(lp641
(I6865
I6863
tp642
a(I6824
I6825
tp643
assS'909'
p644
(dp645
g3
F1.29
sg4
(lp646
sg6
I3514
sg7
I850
sg8
F0.78
sg9
(lp647
I18968
aI18979
asg11
I3515
sg12
I909
sg13
F1.08
sg14
(lp648
(I6731
I6734
tp649
a(I6736
I6730
tp650
asg22
(lp651
ssS'1029'
p652
(dp653
g3
F0.71
sg4
(lp654
sg6
I3582
sg7
I961
sg8
F0.39
sg9
(lp655
I19796
aI21075
asg11
I3583
sg12
I1029
sg13
F0.48
sg14
(lp656
(I7014
I7406
tp657
a(I7406
I7014
tp658
asg22
(lp659
ssS'1028'
p660
(dp661
g3
F1.18
sg4
(lp662
I19803
aI19681
aI6968
aI6971
aI19694
aI21160
aI27688
asg6
I3579
sg7
I960
sg8
F0.68
sg9
(lp663
I19891
aI21058
aI21078
asg11
I3580
sg12
I1028
sg13
F0.9
sg14
(lp664
(I7053
I7065
tp665
a(I7401
I7406
tp666
a(I7406
I7401
tp667
asg22
(lp668
(I7017
I6971
tp669
a(I6970
I7016
tp670
a(I2973
I4091
tp671
a(I2974
I2930
tp672
a(I6977
I7434
tp673
a(I7434
I6977
tp674
a(I10546
I6988
tp675
assS'940'
p676
(dp677
g3
F1.4
sg4
(lp678
sg6
I3541
sg7
I879
sg8
F0.85
sg9
(lp679
I19234
aI19560
asg11
I3542
sg12
I940
sg13
F1.18
sg14
(lp680
(I6816
I6922
tp681
a(I6923
I6815
tp682
asg22
(lp683
ssS'936'
p684
(dp685
g3
F1.34
sg4
(lp686
I19260
asg6
I3562
sg7
I876
sg8
F0.82
sg9
(lp687
sg11
I3563
sg12
I936
sg13
F1.13
sg14
(lp688
sg22
(lp689
(I6827
I6864
tp690
assS'928'
p691
(dp692
g3
F1.08
sg4
(lp693
I19359
aI19409
asg6
I3555
sg7
I868
sg8
F0.66
sg9
(lp694
I19315
aI19418
asg11
I3556
sg12
I928
sg13
F0.91
sg14
(lp695
(I6843
I6882
tp696
a(I6882
I6843
tp697
asg22
(lp698
(I6857
I6842
tp699
a(I6878
I6877
tp700
assS'1017'
p701
(dp702
g3
F0.71
sg4
(lp703
sg6
I3581
sg7
I950
sg8
F0.39
sg9
(lp704
I19698
aI19699
aI21056
aI21663
asg11
I3582
sg12
I1017
sg13
F0.48
sg14
(lp705
(I6979
I6978
tp706
a(I6979
I6980
tp707
a(I7401
I6979
tp708
a(I7598
I6979
tp709
asg22
(lp710
ssS'923'
p711
(dp712
g3
F1.38
sg4
(lp713
I19362
aI19580
asg6
I3554
sg7
I863
sg8
F0.84
sg9
(lp714
sg11
I3555
sg12
I923
sg13
F1.16
sg14
(lp715
sg22
(lp716
(I6860
I6802
tp717
a(I6930
I6859
tp718
assS'924'
p719
(dp720
g3
F1.13
sg4
(lp721
I18965
aI19206
asg6
I3565
sg7
I864
sg8
F0.69
sg9
(lp722
I19007
aI19154
asg11
I3566
sg12
I924
sg13
F0.95
sg14
(lp723
(I6743
I6787
tp724
a(I6787
I6743
tp725
asg22
(lp726
(I6730
I6803
tp727
a(I6804
I6728
tp728
assS'925'
p729
(dp730
g3
F1.07
sg4
(lp731
I19203
aI19213
asg6
I3532
sg7
I865
sg8
F0.6
sg9
(lp732
sg11
I3533
sg12
I925
sg13
F0.73
sg14
(lp733
sg22
(lp734
(I6803
I6806
tp735
a(I6807
I6804
tp736
assS'926'
p737
(dp738
g3
F1.07
sg4
(lp739
I16619
aI18970
asg6
I3533
sg7
I866
sg8
F0.6
sg9
(lp740
sg11
I3534
sg12
I926
sg13
F0.73
sg14
(lp741
sg22
(lp742
(I5956
I6733
tp743
a(I6732
I5980
tp744
assS'927'
p745
(dp746
g3
F1.36
sg4
(lp747
I19370
asg6
I3547
sg7
I867
sg8
F0.83
sg9
(lp748
I19257
aI19261
aI19258
aI19376
aI19377
aI19394
asg11
I3548
sg12
I927
sg13
F1.15
sg14
(lp749
(I6825
I6826
tp750
a(I6827
I6865
tp751
a(I6825
I6866
tp752
a(I6866
I6865
tp753
a(I6866
I6872
tp754
a(I6872
I6866
tp755
asg22
(lp756
(I6864
I6826
tp757
ass.