cnumpy.core.multiarray
_reconstruct
p0
(cnumpy
ndarray
p1
(I0
tp2
S'b'
p3
tp4
Rp5
(I1
(I6
tp6
cnumpy
dtype
p7
(S'f8'
p8
I0
I1
tp9
Rp10
(I3
S'<'
p11
NNNI-1
I-1
I0
tp12
bI00
S"\x04\x80* +o\xb9A'_v04o\xb9AL\xef0F?o\xb9A\xcc!\xe4\xdb,o\xb9A\xc1\x81\x84\x94\x18o\xb9AR\r\n\xd0\ro\xb9A"
p13
tp14
b.