cnumpy.core.multiarray
_reconstruct
p0
(cnumpy
ndarray
p1
(I0
tp2
S'b'
p3
tp4
Rp5
(I1
(I6
tp6
cnumpy
dtype
p7
(S'f8'
p8
I0
I1
tp9
Rp10
(I3
S'<'
p11
NNNI-1
I-1
I0
tp12
bI00
S'\x03b\xd11Q\xfaPAQB>\xe2O\xfaPA\x87\xb7oRO\xfaPA\x81\x14)\xccM\xfaPAOyO}O\xfaPA\x17X\xae\xcfV\xfaPA'
p13
tp14
b.