(dp0
S'1165'
p1
(dp2
S'com_lnSa'
p3
F0.98
sS'repair'
p4
F24760330.77066154
sS'edge_ids_direct'
p5
(lp6
I20605
aI20607
asS'area'
p7
F330137.74360882054
sS'jessica_id'
p8
I3494
sS'omega'
p9
F1.17
sS'age'
p10
F89.0
sS'original_id'
p11
I1165
sS'new_id'
p12
I1082
sS'county'
p13
S'SF'
p14
sS'mod_lnSa'
p15
F0.65
sS'traffic'
p16
F27600.0
sS'loren_row_number'
p17
I3495
sS'edge_ids_indirect'
p18
(lp19
I19517
aI20602
asS'ext_lnSa'
p20
F0.75
sS'a_b_pairs_indirect'
p21
(lp22
(I6908
I7264
tp23
a(I7264
I6908
tp24
asS'a_b_pairs_direct'
p25
(lp26
(I7264
I7265
tp27
a(I7265
I7264
tp28
assS'1075'
p29
(dp30
g3
F0.98
sg4
F5267992.306817947
sg5
(lp31
sg7
F70239.89742423929
sg8
I3500
sg9
F1.17
sg10
F81.0
sg11
I1075
sg12
I999
sg13
S'SF'
p32
sg15
F0.65
sg16
F78400.0
sg17
I3501
sg18
(lp33
sg20
F0.75
sg21
(lp34
sg25
(lp35
ssS'1081'
p36
(dp37
g3
F0.82
sg4
F14508351.93337053
sg5
(lp38
I19264
aI19544
asg7
F193444.69244494042
sg8
I3498
sg9
F1.17
sg10
F57.0
sg11
I1081
sg12
I1004
sg13
S'SF'
p39
sg15
F0.46
sg16
F57000.0
sg17
I3499
sg18
(lp40
I19259
aI19361
asg20
F0.55
sg21
(lp41
(I6826
I6860
tp42
a(I6859
I6827
tp43
asg25
(lp44
(I6828
I6918
tp45
a(I6918
I6828
tp46
assS'1032'
p47
(dp48
g3
F0.68
sg4
cnumpy.core.multiarray
scalar
p49
(cnumpy
dtype
p50
(S'f8'
p51
I0
I1
tp52
Rp53
(I3
S'<'
p54
NNNI-1
I-1
I0
tp55
bS'\\H\xa1\x18\xa5\xe6\x99A'
p56
tp57
Rp58
sg5
(lp59
sg7
g49
(g53
S'j\xe8j{&\x1a6A'
p60
tp61
Rp62
sg8
I3497
sg9
F1.33
sg10
F84.0
sg11
I1032
sg12
I964
sg13
S'SF'
p63
sg15
F0.43
sg16
F0.0
sg17
I3498
sg18
(lp64
I6719
aI6842
asg20
F0.51
sg21
(lp65
(I2895
I2932
tp66
a(I2933
I2894
tp67
asg25
(lp68
ssS'1065'
p69
(dp70
g3
F0.96
sg4
F16967690.18538037
sg5
(lp71
I20818
aI20879
asg7
F226235.86913840493
sg8
I3503
sg9
F1.17
sg10
F81.0
sg11
I1065
sg12
I992
sg13
S'SF'
p72
sg15
F0.63
sg16
F78400.0
sg17
I3504
sg18
(lp73
sg20
F0.73
sg21
(lp74
sg25
(lp75
(I7328
I7348
tp76
a(I7348
I7329
tp77
assS'985'
p78
(dp79
g3
F0.71
sg4
F5267588.66017732
sg5
(lp80
I20816
aI20820
asg7
F70234.51546903094
sg8
I3520
sg9
F1.17
sg10
F81.0
sg11
I985
sg12
I922
sg13
S'SF'
p81
sg15
F0.47
sg16
F24000.0
sg17
I3521
sg18
(lp82
I20058
aI20085
asg20
F0.54
sg21
(lp83
(I7108
I7117
tp84
a(I7117
I7108
tp85
asg25
(lp86
(I7326
I7328
tp87
a(I7329
I7327
tp88
assS'989'
p89
(dp90
g3
F1.16
sg4
F26195052.390104778
sg5
(lp91
sg7
F349267.36520139704
sg8
I3569
sg9
F1.17
sg10
F52.0
sg11
I989
sg12
I925
sg13
S'SF'
p92
sg15
F0.7
sg16
F21000.0
sg17
I3570
sg18
(lp93
I19623
aI19629
asg20
F0.98
sg21
(lp94
(I6942
I6945
tp95
a(I6946
I6943
tp96
asg25
(lp97
ssS'1070'
p98
(dp99
g3
F1.31
sg4
F12247446.369892739
sg5
(lp100
I19446
aI19504
asg7
F163299.28493190318
sg8
I3521
sg9
F1.17
sg10
F68.0
sg11
I1070
sg12
I995
sg13
S'SF'
p101
sg15
F0.75
sg16
F120000.0
sg17
I3522
sg18
(lp102
I19448
aI19500
asg20
F0.99
sg21
(lp103
(I6890
I6904
tp104
a(I6904
I6890
tp105
asg25
(lp106
(I6889
I6905
tp107
a(I6905
I6889
tp108
assS'1071'
p109
(dp110
g3
F1.07
sg4
F1760545.1877570422
sg5
(lp111
sg7
F23473.935836760564
sg8
I3505
sg9
F1.33
sg10
F81.0
sg11
I1071
sg12
I996
sg13
S'SF'
p112
sg15
F0.6
sg16
F95920.0
sg17
I3506
sg18
(lp113
sg20
F0.73
sg21
(lp114
sg25
(lp115
ssS'956'
p116
(dp117
g3
F0.54
sg4
F603683259.4498522
sg5
(lp118
I19958
aI19959
aI19856
aI19860
aI19961
asg7
F8049110.1259980295
sg8
I3545
sg9
F1.37
sg10
F65.0
sg11
I956
sg12
I893
sg13
S'SF'
p119
sg15
F0.3
sg16
F208800.0
sg17
I3546
sg18
(lp120
I236
aI237
aI19857
aI19862
aI19967
aI19970
aI19972
aI19973
aI19977
aI21923
asg20
F0.36
sg21
(lp121
(I7044
I7084
tp122
a(I7045
I7085
tp123
a(I7083
I7677
tp124
a(I7084
I7044
tp125
a(I7085
I7045
tp126
a(I7677
I7083
tp127
asg25
(lp128
(I7076
I7078
tp129
a(I7077
I7075
tp130
a(I7044
I7045
tp131
a(I7045
I7044
tp132
a(I7078
I7079
tp133
assS'977'
p134
(dp135
g3
F1.23
sg4
g49
(g53
S'\x86\x1d\x87\xcbfwoA'
p136
tp137
Rp138
sg5
(lp139
I20008
aI20966
asg7
g49
(g53
S'v]\x84Q\xf1\xd9\nA'
p140
tp141
Rp142
sg8
I3527
sg9
F1.37
sg10
F67.0
sg11
I977
sg12
I914
sg13
S'SF'
p143
sg15
F0.69
sg16
F0.0
sg17
I3528
sg18
(lp144
I20902
aI20905
asg20
F0.85
sg21
(lp145
(I7356
I7357
tp146
a(I7357
I7356
tp147
asg25
(lp148
(I7094
I7375
tp149
a(I7374
I7093
tp150
assS'976'
p151
(dp152
g3
F1.07
sg4
F4218914.687829375
sg5
(lp153
I20902
aI20905
asg7
F56252.195837725005
sg8
I3519
sg9
F1.37
sg10
F67.0
sg11
I976
sg12
I913
sg13
S'SF'
p154
sg15
F0.6
sg16
F40000.0
sg17
I3520
sg18
(lp155
I20008
aI20966
asg20
F0.73
sg21
(lp156
(I7094
I7375
tp157
a(I7374
I7093
tp158
asg25
(lp159
(I7356
I7357
tp160
a(I7357
I7356
tp161
assS'975'
p162
(dp163
g3
F1.18
sg4
F14540966.581933165
sg5
(lp164
I19563
aI20006
asg7
F193879.55442577554
sg8
I3518
sg9
F1.17
sg10
F46.0
sg11
I975
sg12
I912
sg13
S'SF'
p165
sg15
F0.71
sg16
F24000.0
sg17
I3519
sg18
(lp166
I20013
aI20015
asg20
F0.99
sg21
(lp167
(I7095
I7096
tp168
a(I7096
I7095
tp169
asg25
(lp170
(I6925
I7094
tp171
a(I7093
I6924
tp172
assS'972'
p173
(dp174
g3
F0.56
sg4
F3557580.03182673
sg5
(lp175
I19676
aI19677
asg7
F47434.4004243564
sg8
I3524
sg9
F1.17
sg10
F70.0
sg11
I972
sg12
I909
sg13
S'SF'
p176
sg15
F0.37
sg16
F32000.0
sg17
I3525
sg18
(lp177
sg20
F0.43
sg21
(lp178
sg25
(lp179
(I6965
I6967
tp180
a(I6966
I6964
tp181
assS'971'
p182
(dp183
g3
F1.23
sg4
g49
(g53
S'\xd4\x13\x10\xae\xfe\xd6qA'
p184
tp185
Rp186
sg5
(lp187
sg7
g49
(g53
S'=\x88f~Vr\x0eA'
p188
tp189
Rp190
sg8
I3525
sg9
F1.37
sg10
F67.0
sg11
I971
sg12
I908
sg13
S'SF'
p191
sg15
F0.69
sg16
F0.0
sg17
I3526
sg18
(lp192
I20008
asg20
F0.85
sg21
(lp193
(I7094
I7375
tp194
asg25
(lp195
ssS'879'
p196
(dp197
g3
F1.07
sg4
F8150836.614173228
sg5
(lp198
I20681
aI20683
asg7
F108677.8215223097
sg8
I3507
sg9
F1.17
sg10
F84.0
sg11
I879
sg12
I824
sg13
S'SF'
p199
sg15
F0.61
sg16
F93400.0
sg17
I3508
sg18
(lp200
I130
aI20682
asg20
F0.82
sg21
(lp201
sg25
(lp202
(I7285
I7286
tp203
a(I7286
I7285
tp204
assS'951'
p205
(dp206
g3
F1.68
sg4
F9000351.334036
sg5
(lp207
I19305
aI19582
asg7
F120004.68445381334
sg8
I3542
sg9
F1.17
sg10
F57.0
sg11
I951
sg12
I888
sg13
S'SF'
p208
sg15
F1.02
sg16
F20000.0
sg17
I3543
sg18
(lp209
I19259
aI19361
asg20
F1.41
sg21
(lp210
(I6826
I6860
tp211
a(I6859
I6827
tp212
asg25
(lp213
(I6839
I6931
tp214
a(I6931
I6839
tp215
assS'950'
p216
(dp217
g3
F1.29
sg4
F35538664.82732965
sg5
(lp218
I19560
asg7
F473848.8643643954
sg8
I3540
sg9
F1.17
sg10
F60.0
sg11
I950
sg12
I887
sg13
S'SF'
p219
sg15
F0.78
sg16
F107000.0
sg17
I3541
sg18
(lp220
I19247
aI21980
asg20
F1.09
sg21
(lp221
(I6820
I7693
tp222
a(I7693
I6820
tp223
asg25
(lp224
(I6923
I6815
tp225
assS'953'
p226
(dp227
g3
F0.67
sg4
F18012327.691322047
sg5
(lp228
I20823
aI20826
asg7
F240164.3692176273
sg8
I3499
sg9
F1.37
sg10
F84.0
sg11
I953
sg12
I890
sg13
S'SF'
p229
sg15
F0.38
sg16
F157600.0
sg17
I3500
sg18
(lp230
sg20
F0.46
sg21
(lp231
sg25
(lp232
(I7331
I7333
tp233
a(I7333
I7330
tp234
assS'884'
p235
(dp236
g3
F1.39
sg4
F6155288.352243371
sg5
(lp237
I18973
aI18975
asg7
F82070.51136324495
sg8
I3534
sg9
F1.33
sg10
F66.0
sg11
I884
sg12
I829
sg13
S'SF'
p238
sg15
F0.78
sg16
F218200.0
sg17
I3535
sg18
(lp239
I31912
asg20
F0.96
sg21
(lp240
(I13502
I6738
tp241
asg25
(lp242
(I6733
I6736
tp243
a(I6734
I6732
tp244
assS'955'
p245
(dp246
g3
F1.36
sg4
g49
(g53
S'\x81LfL#\xd5sA'
p247
tp248
Rp249
sg5
(lp250
I19362
aI19580
aI19584
aI19589
asg7
g49
(g53
S'\x9e\x96\xd5\xb1}\xec\x10A'
p251
tp252
Rp253
sg8
I3544
sg9
F1.17
sg10
F57.0
sg11
I955
sg12
I892
sg13
S'SF'
p254
sg15
F0.83
sg16
F0.0
sg17
I3545
sg18
(lp255
sg20
F1.15
sg21
(lp256
sg25
(lp257
(I6860
I6802
tp258
a(I6930
I6859
tp259
a(I6931
I6933
tp260
a(I6933
I6931
tp261
assS'954'
p262
(dp263
g3
F1.68
sg4
F6576856.903713807
sg5
(lp264
sg7
F87691.42538285076
sg8
I3543
sg9
F1.17
sg10
F57.0
sg11
I954
sg12
I891
sg13
S'SF'
p265
sg15
F1.02
sg16
F20000.0
sg17
I3544
sg18
(lp266
I19259
aI19361
asg20
F1.41
sg21
(lp267
(I6826
I6860
tp268
a(I6859
I6827
tp269
asg25
(lp270
ssS'978'
p271
(dp272
g3
F1.15
sg4
F16307566.469299605
sg5
(lp273
I20016
aI20019
aI20021
aI21935
aI19076
aI20017
asg7
F217434.2195906614
sg8
I3576
sg9
F1.17
sg10
F46.0
sg11
I978
sg12
I915
sg13
S'SF'
p274
sg15
F0.7
sg16
F16000.0
sg17
I3577
sg18
(lp275
I20018
aI20020
asg20
F0.97
sg21
(lp276
(I7097
I6924
tp277
a(I7097
I7102
tp278
asg25
(lp279
(I7096
I7097
tp280
a(I7097
I7096
tp281
a(I7097
I7680
tp282
a(I7680
I7097
tp283
a(I6763
I7097
tp284
a(I7097
I6763
tp285
assS'939'
p286
(dp287
g3
F0.59
sg4
F49045488.71597744
sg5
(lp288
I19559
aI19216
asg7
F653939.8495463658
sg8
I3516
sg9
F1.37
sg10
F70.0
sg11
I939
sg12
I878
sg13
S'SF'
p289
sg15
F0.29
sg16
F352400.0
sg17
I3517
sg18
(lp290
I19117
aI19245
aI19232
aI19244
aI19246
aI19116
asg20
F0.4
sg21
(lp291
(I6775
I6820
tp292
a(I6820
I6775
tp293
a(I6814
I6820
tp294
a(I6820
I6764
tp295
a(I6820
I6814
tp296
a(I6775
I6788
tp297
asg25
(lp298
(I6923
I6764
tp299
a(I6809
I6922
tp300
assS'1030'
p301
(dp302
g3
F0.44
sg4
F76555218.21460308
sg5
(lp303
sg7
F1020736.2428613745
sg8
I3583
sg9
F1.27
sg10
F83.0
sg11
I1030
sg12
I962
sg13
S'SF'
p304
sg15
F0.32
sg16
F0.0
sg17
I3584
sg18
(lp305
I21667
aI21710
asg20
F0.32
sg21
(lp306
(I7599
I7598
tp307
a(I7611
I7612
tp308
asg25
(lp309
ssS'919'
p310
(dp311
g3
F1.07
sg4
F11842023.684047367
sg5
(lp312
sg7
F157893.64912063157
sg8
I3574
sg9
F1.33
sg10
F48.0
sg11
I919
sg12
I860
sg13
S'SF'
p313
sg15
F0.6
sg16
F218200.0
sg17
I3575
sg18
(lp314
sg20
F0.73
sg21
(lp315
sg25
(lp316
ssS'918'
p317
(dp318
g3
F1.07
sg4
F4712009.424018849
sg5
(lp319
I19203
aI19213
asg7
F62826.79232025131
sg8
I3531
sg9
F1.33
sg10
F66.0
sg11
I918
sg12
I859
sg13
S'SF'
p320
sg15
F0.6
sg16
F212200.0
sg17
I3532
sg18
(lp321
sg20
F0.73
sg21
(lp322
sg25
(lp323
(I6803
I6806
tp324
a(I6807
I6804
tp325
assS'933'
p326
(dp327
g3
F1.0
sg4
F32429778.40122347
sg5
(lp328
I19257
aI19261
asg7
F432397.04534964624
sg8
I3551
sg9
F1.33
sg10
F56.0
sg11
I933
sg12
I873
sg13
S'SF'
p329
sg15
F0.56
sg16
F353500.0
sg17
I3552
sg18
(lp330
I19258
aI19376
asg20
F0.69
sg21
(lp331
(I6825
I6866
tp332
a(I6866
I6865
tp333
asg25
(lp334
(I6825
I6826
tp335
a(I6827
I6865
tp336
assS'932'
p337
(dp338
g3
F1.39
sg4
F59034774.319548644
sg5
(lp339
I19376
aI19260
asg7
F787130.3242606486
sg8
I3550
sg9
F1.33
sg10
F56.0
sg11
I932
sg12
I872
sg13
S'SF'
p340
sg15
F0.78
sg16
F0.0
sg17
I3551
sg18
(lp341
I19377
aI19394
asg20
F0.96
sg21
(lp342
(I6866
I6872
tp343
a(I6872
I6866
tp344
asg25
(lp345
(I6866
I6865
tp346
a(I6827
I6864
tp347
assS'931'
p348
(dp349
g3
F1.21
sg4
F50138321.63080992
sg5
(lp350
I19257
aI19261
aI19377
asg7
F668510.9550774656
sg8
I3549
sg9
F1.33
sg10
F56.0
sg11
I931
sg12
I871
sg13
S'SF'
p351
sg15
F0.68
sg16
F353500.0
sg17
I3550
sg18
(lp352
I19394
asg20
F0.83
sg21
(lp353
(I6872
I6866
tp354
asg25
(lp355
(I6825
I6826
tp356
a(I6827
I6865
tp357
a(I6866
I6872
tp358
assS'930'
p359
(dp360
g3
F1.21
sg4
F50138321.63080992
sg5
(lp361
I19257
aI19261
aI19377
asg7
F668510.9550774656
sg8
I3548
sg9
F1.33
sg10
F56.0
sg11
I930
sg12
I870
sg13
S'SF'
p362
sg15
F0.68
sg16
F353500.0
sg17
I3549
sg18
(lp363
I19394
asg20
F0.83
sg21
(lp364
(I6872
I6866
tp365
asg25
(lp366
(I6825
I6826
tp367
a(I6827
I6865
tp368
a(I6866
I6872
tp369
assS'937'
p370
(dp371
g3
F0.71
sg4
F19500492.12598425
sg5
(lp372
I19258
aI19376
asg7
F260006.56167979003
sg8
I3563
sg9
F1.17
sg10
F56.0
sg11
I937
sg12
I877
sg13
S'SF'
p373
sg15
F0.41
sg16
F0.0
sg17
I3564
sg18
(lp374
I19294
aI20258
asg20
F0.48
sg21
(lp375
(I6837
I7163
tp376
a(I7163
I6837
tp377
asg25
(lp378
(I6825
I6866
tp379
a(I6866
I6865
tp380
assS'936'
p381
(dp382
g3
F1.34
sg4
F11020360.582387831
sg5
(lp383
I19260
asg7
F146938.14109850442
sg8
I3562
sg9
F1.17
sg10
F56.0
sg11
I936
sg12
I876
sg13
S'SF'
p384
sg15
F0.82
sg16
F5800.0
sg17
I3563
sg18
(lp385
sg20
F1.13
sg21
(lp386
sg25
(lp387
(I6827
I6864
tp388
assS'935'
p389
(dp390
g3
F1.21
sg4
F1399362.1737243475
sg5
(lp391
sg7
F18658.162316324633
sg8
I3553
sg9
F1.17
sg10
F56.0
sg11
I935
sg12
I875
sg13
S'SF'
p392
sg15
F0.73
sg16
F8000.0
sg17
I3554
sg18
(lp393
I19375
aI19256
asg20
F1.02
sg21
(lp394
(I6865
I6863
tp395
a(I6824
I6825
tp396
asg25
(lp397
ssS'934'
p398
(dp399
g3
F1.34
sg4
F11721010.421187509
sg5
(lp400
I19370
aI19260
asg7
F156280.13894916678
sg8
I3552
sg9
F1.17
sg10
F56.0
sg11
I934
sg12
I874
sg13
S'SF'
p401
sg15
F0.82
sg16
F353500.0
sg17
I3553
sg18
(lp402
I19257
aI19261
aI19258
aI19376
aI19377
aI19394
asg20
F1.13
sg21
(lp403
(I6825
I6826
tp404
a(I6827
I6865
tp405
a(I6825
I6866
tp406
a(I6866
I6865
tp407
a(I6866
I6872
tp408
a(I6872
I6866
tp409
asg25
(lp410
(I6864
I6826
tp411
a(I6827
I6864
tp412
assS'995'
p413
(dp414
g3
F1.39
sg4
g49
(g53
S'\x16(B\xcf+DzA'
p415
tp416
Rp417
sg5
(lp418
sg7
g49
(g53
S'\xac\x99\xf7\x98\xf5i\x16A'
p419
tp420
Rp421
sg8
I3571
sg9
F1.33
sg10
F52.0
sg11
I995
sg12
I931
sg13
S'SF'
p422
sg15
F0.78
sg16
F0.0
sg17
I3572
sg18
(lp423
I19558
aI19561
asg20
F0.96
sg21
(lp424
(I6922
I6925
tp425
a(I6924
I6923
tp426
asg25
(lp427
ssS'994'
p428
(dp429
g3
F0.75
sg4
F19456656.1008122
sg5
(lp430
I19257
aI19261
asg7
F259422.08134416267
sg8
I3560
sg9
F1.17
sg10
F56.0
sg11
I994
sg12
I930
sg13
S'SF'
p431
sg15
F0.43
sg16
F353500.0
sg17
I3561
sg18
(lp432
I19266
aI19291
asg20
F0.51
sg21
(lp433
(I6829
I6837
tp434
a(I6837
I6829
tp435
asg25
(lp436
(I6825
I6826
tp437
a(I6827
I6865
tp438
assS'892'
p439
(dp440
g3
F0.67
sg4
F31691993.071486145
sg5
(lp441
I18968
aI18979
asg7
F422559.90761981526
sg8
I3512
sg9
F1.17
sg10
F66.0
sg11
I892
sg12
I834
sg13
S'SF'
p442
sg15
F0.38
sg16
F218200.0
sg17
I3513
sg18
(lp443
I18980
asg20
F0.46
sg21
(lp444
(I6736
I6791
tp445
asg25
(lp446
(I6731
I6734
tp447
a(I6736
I6730
tp448
assS'893'
p449
(dp450
g3
F0.6
sg4
F2796463.926261185
sg5
(lp451
I19411
aI19419
aI19410
asg7
F37286.18568348247
sg8
I3556
sg9
F1.17
sg10
F56.0
sg11
I893
sg12
I835
sg13
S'SF'
p452
sg15
F0.34
sg16
F0.0
sg17
I3557
sg18
(lp453
sg20
F0.4
sg21
(lp454
sg25
(lp455
(I6879
I6882
tp456
a(I6882
I6879
tp457
a(I6878
I6879
tp458
assS'894'
p459
(dp460
g3
F0.62
sg4
F3782007.5640151277
sg5
(lp461
I19315
aI19418
asg7
F50426.767520201705
sg8
I3557
sg9
F1.17
sg10
F56.0
sg11
I894
sg12
I836
sg13
S'SF'
p462
sg15
F0.35
sg16
F7500.0
sg17
I3558
sg18
(lp463
I19312
asg20
F0.42
sg21
(lp464
(I6843
I6842
tp465
asg25
(lp466
(I6843
I6882
tp467
a(I6882
I6843
tp468
assS'895'
p469
(dp470
g3
F1.17
sg4
F979408.2088164178
sg5
(lp471
I32349
aI19327
asg7
F13058.776117552237
sg8
I3558
sg9
F1.17
sg10
F56.0
sg11
I895
sg12
I837
sg13
S'SF'
p472
sg15
F0.71
sg16
F29000.0
sg17
I3559
sg18
(lp473
I19417
aI19310
asg20
F0.98
sg21
(lp474
(I6881
I6878
tp475
a(I6842
I6844
tp476
asg25
(lp477
(I13648
I6847
tp478
a(I6847
I13648
tp479
assS'993'
p480
(dp481
g3
F1.23
sg4
F2400567.301134602
sg5
(lp482
I19563
aI20006
asg7
F32007.56401512803
sg8
I3526
sg9
F1.37
sg10
F67.0
sg11
I993
sg12
I929
sg13
S'SF'
p483
sg15
F0.69
sg16
F352400.0
sg17
I3527
sg18
(lp484
I20013
aI20015
asg20
F0.85
sg21
(lp485
(I7095
I7096
tp486
a(I7096
I7095
tp487
asg25
(lp488
(I6925
I7094
tp489
a(I7093
I6924
tp490
assS'952'
p491
(dp492
g3
F1.4
sg4
F95562857.79238226
sg5
(lp493
I19370
asg7
F1274171.4372317635
sg8
I3561
sg9
F1.17
sg10
F56.0
sg11
I952
sg12
I889
sg13
S'SF'
p494
sg15
F0.85
sg16
F8600.0
sg17
I3562
sg18
(lp495
I19257
aI19261
aI19258
aI19376
aI19377
aI19394
asg20
F1.18
sg21
(lp496
(I6825
I6826
tp497
a(I6827
I6865
tp498
a(I6825
I6866
tp499
a(I6866
I6865
tp500
a(I6866
I6872
tp501
a(I6872
I6866
tp502
asg25
(lp503
(I6864
I6826
tp504
assS'898'
p505
(dp506
g3
F1.4
sg4
F12132649.265298529
sg5
(lp507
I19558
aI19561
asg7
F161768.65687064704
sg8
I3522
sg9
F1.17
sg10
F70.0
sg11
I898
sg12
I839
sg13
S'SF'
p508
sg15
F0.92
sg16
F352400.0
sg17
I3523
sg18
(lp509
I19079
aI19565
asg20
F1.06
sg21
(lp510
(I6765
I6926
tp511
a(I6926
I6765
tp512
asg25
(lp513
(I6922
I6925
tp514
a(I6924
I6923
tp515
assS'899'
p516
(dp517
g3
F1.15
sg4
F22549961.766590197
sg5
(lp518
I19611
aI19622
asg7
F300666.1568878693
sg8
I3568
sg9
F1.17
sg10
F52.0
sg11
I899
sg12
I840
sg13
S'SF'
p519
sg15
F0.7
sg16
F5000.0
sg17
I3569
sg18
(lp520
I19628
aI19633
asg20
F0.97
sg21
(lp521
(I6945
I6947
tp522
a(I6948
I6946
tp523
asg25
(lp524
(I6939
I6941
tp525
a(I6941
I6939
tp526
assS'1066'
p527
(dp528
g3
F0.66
sg4
F1735074761.8161902
sg5
(lp529
I20813
aI20815
asg7
F23134330.157549202
sg8
I3504
sg9
F1.37
sg10
F84.0
sg11
I1066
sg12
I993
sg13
S'SF'
p530
sg15
F0.33
sg16
F157600.0
sg17
I3505
sg18
(lp531
I20819
aI20058
aI20085
asg20
F0.45
sg21
(lp532
(I7329
I7324
tp533
a(I7108
I7117
tp534
a(I7117
I7108
tp535
asg25
(lp536
(I7325
I7327
tp537
a(I7326
I7324
tp538
assS'966'
p539
(dp540
g3
F0.97
sg4
F18967032.725732114
sg5
(lp541
I18978
aI19162
asg7
F252893.7696764282
sg8
I3572
sg9
F1.37
sg10
F50.0
sg11
I966
sg12
I903
sg13
S'SF'
p542
sg15
F0.48
sg16
F60000.0
sg17
I3573
sg18
(lp543
I18968
aI18979
asg20
F0.66
sg21
(lp544
(I6731
I6734
tp545
a(I6736
I6730
tp546
asg25
(lp547
(I6735
I6789
tp548
a(I6789
I6735
tp549
assS'940'
p550
(dp551
g3
F1.4
sg4
F13471948.818897638
sg5
(lp552
sg7
F179625.9842519685
sg8
I3541
sg9
F1.17
sg10
F57.0
sg11
I940
sg12
I879
sg13
S'SF'
p553
sg15
F0.85
sg16
F15000.0
sg17
I3542
sg18
(lp554
I19234
aI19560
asg20
F1.18
sg21
(lp555
(I6816
I6922
tp556
a(I6923
I6815
tp557
asg25
(lp558
ssS'915'
p559
(dp560
g3
F1.15
sg4
g49
(g53
S'Q\xb2\xa3\xfcM lA'
p561
tp562
Rp563
sg5
(lp564
I19310
aI19417
asg7
g49
(g53
S'\xce\x08~\x8cB\x00\x08A'
p565
tp566
Rp567
sg8
I3567
sg9
F1.17
sg10
F56.0
sg11
I915
sg12
I856
sg13
S'SF'
p568
sg15
F0.7
sg16
F0.0
sg17
I3568
sg18
(lp569
sg20
F0.97
sg21
(lp570
sg25
(lp571
(I6842
I6844
tp572
a(I6881
I6878
tp573
assS'912'
p574
(dp575
g3
F0.56
sg4
F3648561.9846239686
sg5
(lp576
I18968
aI18979
asg7
F48647.493128319584
sg8
I3513
sg9
F1.17
sg10
F65.0
sg11
I912
sg12
I853
sg13
S'SF'
p577
sg15
F0.32
sg16
F40000.0
sg17
I3514
sg18
(lp578
I18980
asg20
F0.38
sg21
(lp579
(I6736
I6791
tp580
asg25
(lp581
(I6731
I6734
tp582
a(I6736
I6730
tp583
assS'1886'
p584
(dp585
S'com_lnSa'
p586
F0.68
sg4
F20283405.15014363
sS'edge_ids_direct'
p587
(lp588
I19803
aI19681
aI6968
aI6971
aI19694
aI21160
aI27688
aI19709
aI19800
aI19032
asg16
F314600.0
sg7
F270445.4020019151
sS'a_b_pairs_direct'
p589
(lp590
(I7017
I6971
tp591
a(I6970
I7016
tp592
a(I2973
I4091
tp593
a(I2974
I2930
tp594
a(I6977
I7434
tp595
a(I7434
I6977
tp596
a(I10546
I6988
tp597
a(I6984
I10541
tp598
a(I7016
I6751
tp599
a(I6751
I7015
tp600
asg10
F84.0
sS'new_id'
p601
I1743
sS'jessica_id'
p602
I3496
sg13
S'SF'
p603
sS'mod_lnSa'
p604
F0.43
sS'edge_ids_indirect'
p605
(lp606
sS'loren_row_number'
p607
I3497
sS'original_id'
p608
I1886
sS'ext_lnSa'
p609
F0.51
sS'a_b_pairs_indirect'
p610
(lp611
sg9
F1.37
ssS'917'
p612
(dp613
g3
F0.68
sg4
F9344419.730506128
sg5
(lp614
I32262
aI19326
asg7
F124592.26307341503
sg8
I3566
sg9
F1.17
sg10
F56.0
sg11
I917
sg12
I858
sg13
S'SF'
p615
sg15
F0.39
sg16
F29000.0
sg17
I3567
sg18
(lp616
I19369
aI19316
asg20
F0.46
sg21
(lp617
(I6863
I6881
tp618
a(I6844
I6824
tp619
asg25
(lp620
(I13618
I6847
tp621
a(I6847
I13618
tp622
assS'1027'
p623
(dp624
g3
F1.19
sg4
F803581750.3926675
sg5
(lp625
I19801
aI19793
aI19696
aI19702
aI19797
aI19032
asg7
F10714423.3385689
sg8
I3578
sg9
F1.17
sg10
F85.0
sg11
I1027
sg12
I959
sg13
S'SF'
p626
sg15
F0.68
sg16
F0.0
sg17
I3579
sg18
(lp627
I19802
aI19808
aI21076
aI21153
asg20
F0.91
sg21
(lp628
(I7016
I7019
tp629
a(I7020
I7017
tp630
a(I7406
I7017
tp631
a(I7432
I7017
tp632
asg25
(lp633
(I7016
I7013
tp634
a(I7013
I6976
tp635
a(I6978
I6976
tp636
a(I6981
I6978
tp637
a(I7015
I6981
tp638
a(I6751
I7015
tp639
assS'901'
p640
(dp641
g3
F0.93
sg4
F11160829.613325894
sg5
(lp642
sg7
F148811.0615110119
sg8
I3573
sg9
F1.17
sg10
F50.0
sg11
I901
sg12
I842
sg13
S'SF'
p643
sg15
F0.53
sg16
F212200.0
sg17
I3574
sg18
(lp644
sg20
F0.71
sg21
(lp645
sg25
(lp646
ssS'948'
p647
(dp648
g3
F1.4
sg4
F7391012.177857689
sg5
(lp649
I19077
aI19216
aI19235
aI19634
asg7
F98546.82903810251
sg8
I3537
sg9
F1.37
sg10
F66.0
sg11
I948
sg12
I886
sg13
S'SF'
p650
sg15
F0.69
sg16
F9000.0
sg17
I3538
sg18
(lp651
sg20
F0.96
sg21
(lp652
sg25
(lp653
(I6764
I6808
tp654
a(I6809
I6922
tp655
a(I6816
I6959
tp656
a(I6949
I6815
tp657
assS'904'
p658
(dp659
g3
F1.16
sg4
F450413463.32692665
sg5
(lp660
I19963
aI19966
asg7
F6005512.844359022
sg8
I3559
sg9
F1.37
sg10
F65.0
sg11
I904
sg12
I845
sg13
S'SF'
p661
sg15
F0.58
sg16
F352400.0
sg17
I3560
sg18
(lp662
I19979
aI19991
asg20
F0.8
sg21
(lp663
(I7085
I7088
tp664
a(I7088
I7085
tp665
asg25
(lp666
(I7080
I7081
tp667
a(I7082
I7074
tp668
assS'924'
p669
(dp670
g3
F1.13
sg4
F45047691.65788332
sg5
(lp671
I18965
aI19206
asg7
F600635.8887717775
sg8
I3565
sg9
F1.17
sg10
F56.0
sg11
I924
sg12
I864
sg13
S'SF'
p672
sg15
F0.69
sg16
F34000.0
sg17
I3566
sg18
(lp673
I19007
aI19154
asg20
F0.95
sg21
(lp674
(I6743
I6787
tp675
a(I6787
I6743
tp676
asg25
(lp677
(I6730
I6803
tp678
a(I6804
I6728
tp679
assS'944'
p680
(dp681
g3
F1.12
sg4
g49
(g53
S'\xd5\xe5\xe4\xb5\x9b]~A'
p682
tp683
Rp684
sg5
(lp685
I19375
aI19256
asg7
g49
(g53
S'\x90\x01\x0b\xa2z\xe9\x19A'
p686
tp687
Rp688
sg8
I3564
sg9
F1.17
sg10
F56.0
sg11
I944
sg12
I883
sg13
S'SF'
p689
sg15
F0.68
sg16
F0.0
sg17
I3565
sg18
(lp690
sg20
F0.94
sg21
(lp691
sg25
(lp692
(I6865
I6863
tp693
a(I6824
I6825
tp694
assS'909'
p695
(dp696
g3
F1.29
sg4
g49
(g53
S'g\x11\x86)\x1dxiA'
p697
tp698
Rp699
sg5
(lp700
sg7
g49
(g53
S'wEP\x9e\xd4\xbb\x05A'
p701
tp702
Rp703
sg8
I3514
sg9
F1.17
sg10
F50.0
sg11
I909
sg12
I850
sg13
S'SF'
p704
sg15
F0.78
sg16
F0.0
sg17
I3515
sg18
(lp705
I18968
aI18979
asg20
F1.08
sg21
(lp706
(I6731
I6734
tp707
a(I6736
I6730
tp708
asg25
(lp709
ssS'1029'
p710
(dp711
g3
F0.71
sg4
F6578310.031620063
sg5
(lp712
sg7
F87710.80042160084
sg8
I3582
sg9
F1.33
sg10
F83.0
sg11
I1029
sg12
I961
sg13
S'SF'
p713
sg15
F0.39
sg16
F0.0
sg17
I3583
sg18
(lp714
I19796
aI21075
asg20
F0.48
sg21
(lp715
(I7014
I7406
tp716
a(I7406
I7014
tp717
asg25
(lp718
ssS'1067'
p719
(dp720
g3
F0.81
sg4
F22628592.13218426
sg5
(lp721
I19450
aI19455
asg7
F301714.5617624568
sg8
I3506
sg9
F1.17
sg10
F70.0
sg11
I1067
sg12
I994
sg13
S'SF'
p722
sg15
F0.54
sg16
F0.0
sg17
I3507
sg18
(lp723
I19451
aI19505
asg20
F0.62
sg21
(lp724
(I6891
I6905
tp725
a(I6905
I6891
tp726
asg25
(lp727
(I6891
I6892
tp728
a(I6892
I6891
tp729
assS'910'
p730
(dp731
g3
F0.8
sg4
F8288157.201314403
sg5
(lp732
I19161
aI19229
asg7
F110508.76268419204
sg8
I3515
sg9
F1.17
sg10
F66.0
sg11
I910
sg12
I851
sg13
S'SF'
p733
sg15
F0.49
sg16
F40000.0
sg17
I3516
sg18
(lp734
I18212
aI19215
asg20
F0.68
sg21
(lp735
(I6808
I6807
tp736
asg25
(lp737
(I6788
I6814
tp738
a(I6814
I6788
tp739
assS'928'
p740
(dp741
g3
F1.08
sg4
F48846652.380804755
sg5
(lp742
I19359
aI19409
asg7
F651288.6984107301
sg8
I3555
sg9
F1.17
sg10
F56.0
sg11
I928
sg12
I868
sg13
S'SF'
p743
sg15
F0.66
sg16
F312400.0
sg17
I3556
sg18
(lp744
I19315
aI19418
asg20
F0.91
sg21
(lp745
(I6843
I6882
tp746
a(I6882
I6843
tp747
asg25
(lp748
(I6857
I6842
tp749
a(I6878
I6877
tp750
assS'1017'
p751
(dp752
g3
F0.71
sg4
F64311566.123132244
sg5
(lp753
sg7
F857487.5483084299
sg8
I3581
sg9
F1.37
sg10
F83.0
sg11
I1017
sg12
I950
sg13
S'SF'
p754
sg15
F0.39
sg16
F850.0
sg17
I3582
sg18
(lp755
I19698
aI19699
aI21056
aI21663
asg20
F0.48
sg21
(lp756
(I6979
I6978
tp757
a(I6979
I6980
tp758
a(I7401
I6979
tp759
a(I7598
I6979
tp760
asg25
(lp761
ssS'990'
p762
(dp763
g3
F1.07
sg4
F1136878836.2576725
sg5
(lp764
I19625
aI19667
aI19623
aI19629
asg7
F15158384.483435635
sg8
I3570
sg9
F1.17
sg10
F49.0
sg11
I990
sg12
I926
sg13
S'SF'
p765
sg15
F0.71
sg16
F127100.0
sg17
I3571
sg18
(lp766
I20996
aI27065
asg20
F0.82
sg21
(lp767
(I7382
I7383
tp768
a(I10241
I6951
tp769
asg25
(lp770
(I6943
I6962
tp771
a(I6961
I6942
tp772
a(I6942
I6945
tp773
a(I6946
I6943
tp774
assS'947'
p775
(dp776
g3
F1.21
sg4
F56286909.4488189
sg5
(lp777
I19563
aI20006
asg7
F750492.125984252
sg8
I3517
sg9
F1.37
sg10
F69.0
sg11
I947
sg12
I885
sg13
S'SF'
p778
sg15
F0.6
sg16
F352400.0
sg17
I3518
sg18
(lp779
I20013
aI20015
asg20
F0.83
sg21
(lp780
(I7095
I7096
tp781
a(I7096
I7095
tp782
asg25
(lp783
(I6925
I7094
tp784
a(I7093
I6924
tp785
assS'923'
p786
(dp787
g3
F1.38
sg4
F1116002.2320044641
sg5
(lp788
I19362
aI19580
asg7
F14880.02976005952
sg8
I3554
sg9
F1.17
sg10
F56.0
sg11
I923
sg12
I863
sg13
S'SF'
p789
sg15
F0.84
sg16
F5800.0
sg17
I3555
sg18
(lp790
sg20
F1.16
sg21
(lp791
sg25
(lp792
(I6860
I6802
tp793
a(I6930
I6859
tp794
assS'1003'
p795
(dp796
g3
F1.08
sg4
g49
(g53
S'gt\x00(T\x85\x80A'
p797
tp798
Rp799
sg5
(lp800
sg7
g49
(g53
S'a\xe5\x85\xeb\r2\x1cA'
p801
tp802
Rp803
sg8
I3546
sg9
F1.17
sg10
F56.0
sg11
I1003
sg12
I939
sg13
S'SF'
p804
sg15
F0.66
sg16
F0.0
sg17
I3547
sg18
(lp805
I19258
aI19376
aI19260
aI19370
asg20
F0.91
sg21
(lp806
(I6825
I6866
tp807
a(I6866
I6865
tp808
a(I6827
I6864
tp809
a(I6864
I6826
tp810
asg25
(lp811
ssS'925'
p812
(dp813
g3
F1.07
sg4
F4851509.703019406
sg5
(lp814
I19203
aI19213
asg7
F64686.79604025875
sg8
I3532
sg9
F1.33
sg10
F60.0
sg11
I925
sg12
I865
sg13
S'SF'
p815
sg15
F0.6
sg16
F212200.0
sg17
I3533
sg18
(lp816
sg20
F0.73
sg21
(lp817
sg25
(lp818
(I6803
I6806
tp819
a(I6807
I6804
tp820
assS'926'
p821
(dp822
g3
F1.07
sg4
F3413235.993138653
sg5
(lp823
I16619
aI18970
asg7
F45509.81324184871
sg8
I3533
sg9
F1.33
sg10
F66.0
sg11
I926
sg12
I866
sg13
S'SF'
p824
sg15
F0.6
sg16
F218200.0
sg17
I3534
sg18
(lp825
sg20
F0.73
sg21
(lp826
sg25
(lp827
(I5956
I6733
tp828
a(I6732
I5980
tp829
assS'927'
p830
(dp831
g3
F1.36
sg4
F8361782.3485646965
sg5
(lp832
I19370
asg7
F111490.43131419596
sg8
I3547
sg9
F1.17
sg10
F56.0
sg11
I927
sg12
I867
sg13
S'SF'
p833
sg15
F0.83
sg16
F0.0
sg17
I3548
sg18
(lp834
I19257
aI19261
aI19258
aI19376
aI19377
aI19394
asg20
F1.15
sg21
(lp835
(I6825
I6826
tp836
a(I6827
I6865
tp837
a(I6825
I6866
tp838
a(I6866
I6865
tp839
a(I6866
I6872
tp840
a(I6872
I6866
tp841
asg25
(lp842
(I6864
I6826
tp843
ass.