cnumpy.core.multiarray
_reconstruct
p0
(cnumpy
ndarray
p1
(I0
tp2
S'b'
p3
tp4
Rp5
(I1
(I6
tp6
cnumpy
dtype
p7
(S'f8'
p8
I0
I1
tp9
Rp10
(I3
S'<'
p11
NNNI-1
I-1
I0
tp12
bI00
S'%l\xc1\nA\xf9tAYv*\xcb\xa8\xaavA?\xda:\\\x0bBxA\xba v\xd0\x86\x1buA\xc0\x19\xedobTtA\xe8R/c\xd0tvA'
p13
tp14
b.