cnumpy.core.multiarray
_reconstruct
p0
(cnumpy
ndarray
p1
(I0
tp2
S'b'
p3
tp4
Rp5
(I1
(I6
tp6
cnumpy
dtype
p7
(S'f8'
p8
I0
I1
tp9
Rp10
(I3
S'<'
p11
NNNI-1
I-1
I0
tp12
bI00
S'!C\x97{U\xfaPA\xc2FQ\xb9M\xfaPA\x14\xa9\x8d\x84K\xfaPA$\xce\xa7TM\xfaPAHJ)~N\xfaPA\x99\xae\xb8lQ\xfaPA'
p13
tp14
b.