cnumpy.core.multiarray
_reconstruct
p0
(cnumpy
ndarray
p1
(I0
tp2
S'b'
p3
tp4
Rp5
(I1
(I6
tp6
cnumpy
dtype
p7
(S'f8'
p8
I0
I1
tp9
Rp10
(I3
S'<'
p11
NNNI-1
I-1
I0
tp12
bI00
S'\x86;<E\xe6TwA\x8a0\x11\xa4\xa7\xc3yABJe\xb8@@zA\x07\x05T\xe5\\JzA\x804\xe8<.\xf3xA\x1aN\xfeO\xce\rwA'
p13
tp14
b.