cnumpy.core.multiarray
_reconstruct
p0
(cnumpy
ndarray
p1
(I0
tp2
S'b'
p3
tp4
Rp5
(I1
(I7
tp6
cnumpy
dtype
p7
(S'f8'
p8
I0
I1
tp9
Rp10
(I3
S'<'
p11
NNNI-1
I-1
I0
tp12
bI00
S'{Gb\xfd\xc98tAc\xa4\xdb^\xb17tA\xf9\\c_\xe06tA\xac\xec]=\xab6tAl\x08\xf42Y6tA\xf9-K\xc7<4tA\xfaD^\xaaa4tA'
p13
tp14
b.