cnumpy.core.multiarray
_reconstruct
p0
(cnumpy
ndarray
p1
(I0
tp2
S'b'
p3
tp4
Rp5
(I1
(I6
tp6
cnumpy
dtype
p7
(S'f8'
p8
I0
I1
tp9
Rp10
(I3
S'<'
p11
NNNI-1
I-1
I0
tp12
bI00
S'\r[\x12\rH\xbftA\x90\xb0B\x96EWtA\xb9m\xdd*\xf32tA\xa4\x83\x81\x02Q\x94tAC\tu\xe0\x885tA]\x85\xf5?\xd17tA'
p13
tp14
b.