cnumpy.core.multiarray
_reconstruct
p0
(cnumpy
ndarray
p1
(I0
tp2
S'b'
p3
tp4
Rp5
(I1
(I6
tp6
cnumpy
dtype
p7
(S'f8'
p8
I0
I1
tp9
Rp10
(I3
S'<'
p11
NNNI-1
I-1
I0
tp12
bI00
S'\xc8\xc5\x9a\xa2P\xfaPAx\xaeh@N\xfaPAoAB\x14J\xfaPAfn\xf2/P\xfaPA\xd1/u8Q\xfaPA\xe6\xa2\xc7\x08P\xfaPA'
p13
tp14
b.